target datalayout = "e-m:e-p270:32:32-p271:32:32-p272:64:64-i64:64-i128:128-f80:128-n8:16:32:64-S128"
target triple = "x86_64-pc-linux-gnu"

%struct.AVFilterContext = type { ptr, ptr, ptr, ptr, ptr, i32, ptr, ptr, i32, ptr, ptr, i32, i32, ptr, ptr, ptr, ptr, i32, ptr, i32, i32 }
%struct.LimiterContext = type { ptr, i32, i32, i32, i32, [4 x i32], [4 x i32], [4 x i32], %struct.LimiterDSPContext }
%struct.LimiterDSPContext = type { ptr }
%struct.ThreadData = type { ptr, ptr }
%struct.AVFilterLink = type { ptr, ptr, ptr, ptr, i32, i32, i32, i32, %struct.AVRational, i32, i32, i32, %struct.AVChannelLayout, %struct.AVRational, ptr, i32, %struct.AVFilterFormatsConfig, %struct.AVFilterFormatsConfig }
%struct.AVChannelLayout = type { i32, i32, %union.anon.1, ptr }
%union.anon.1 = type { i64 }
%struct.AVRational = type { i32, i32 }
%struct.AVFilterFormatsConfig = type { ptr, ptr, ptr, ptr, ptr }

; Function Attrs: nounwind uwtable
define internal i32 @filter_frame(ptr noundef %0, ptr noundef %1) #1 {
  %3 = alloca i32, align 4
  %4 = alloca ptr, align 8
  %5 = alloca ptr, align 8
  %6 = alloca ptr, align 8
  %7 = alloca ptr, align 8
  %8 = alloca ptr, align 8
  %9 = alloca %struct.ThreadData, align 8
  %10 = alloca ptr, align 8
  %11 = alloca i32, align 4
  store ptr %0, ptr %4, align 8, !tbaa !31
  store ptr %1, ptr %5, align 8, !tbaa !33
  call void @llvm.lifetime.start.p0(i64 8, ptr %6) #7
  %12 = load ptr, ptr %4, align 8, !tbaa !31
  %13 = getelementptr inbounds nuw %struct.AVFilterLink, ptr %12, i32 0, i32 2
  %14 = load ptr, ptr %13, align 8, !tbaa !35
  store ptr %14, ptr %6, align 8, !tbaa !4
  call void @llvm.lifetime.start.p0(i64 8, ptr %7) #7
  %15 = load ptr, ptr %6, align 8, !tbaa !4
  %16 = getelementptr inbounds nuw %struct.AVFilterContext, ptr %15, i32 0, i32 9
  %17 = load ptr, ptr %16, align 8, !tbaa !9
  store ptr %17, ptr %7, align 8, !tbaa !22
  call void @llvm.lifetime.start.p0(i64 8, ptr %8) #7
  %18 = load ptr, ptr %6, align 8, !tbaa !4
  %19 = getelementptr inbounds nuw %struct.AVFilterContext, ptr %18, i32 0, i32 7
  %20 = load ptr, ptr %19, align 8, !tbaa !43
  %21 = getelementptr inbounds ptr, ptr %20, i64 0
  %22 = load ptr, ptr %21, align 8, !tbaa !31
  store ptr %22, ptr %8, align 8, !tbaa !31
  call void @llvm.lifetime.start.p0(i64 16, ptr %9) #7
  call void @llvm.lifetime.start.p0(i64 8, ptr %10) #7
  %23 = load ptr, ptr %5, align 8, !tbaa !33
  %24 = call i32 @av_frame_is_writable(ptr noundef %23)
  %25 = icmp ne i32 %24, 0
  br i1 %25, label %26, label %28

26:                                               ; preds = %2
  %27 = load ptr, ptr %5, align 8, !tbaa !33
  store ptr %27, ptr %10, align 8, !tbaa !33
  br label %44

28:                                               ; preds = %2
  %29 = load ptr, ptr %8, align 8, !tbaa !31
  %30 = load ptr, ptr %8, align 8, !tbaa !31
  %31 = getelementptr inbounds nuw %struct.AVFilterLink, ptr %30, i32 0, i32 6
  %32 = load i32, ptr %31, align 8, !tbaa !44
  %33 = load ptr, ptr %8, align 8, !tbaa !31
  %34 = getelementptr inbounds nuw %struct.AVFilterLink, ptr %33, i32 0, i32 7
  %35 = load i32, ptr %34, align 4, !tbaa !45
  %36 = call ptr @ff_get_video_buffer(ptr noundef %29, i32 noundef %32, i32 noundef %35)
  store ptr %36, ptr %10, align 8, !tbaa !33
  %37 = load ptr, ptr %10, align 8, !tbaa !33
  %38 = icmp ne ptr %37, null
  br i1 %38, label %40, label %39

39:                                               ; preds = %28
  call void @av_frame_free(ptr noundef %5)
  store i32 -12, ptr %3, align 4
  store i32 1, ptr %11, align 4
  br label %76

40:                                               ; preds = %28
  %41 = load ptr, ptr %10, align 8, !tbaa !33
  %42 = load ptr, ptr %5, align 8, !tbaa !33
  %43 = call i32 @av_frame_copy_props(ptr noundef %41, ptr noundef %42)
  br label %44

44:                                               ; preds = %40, %26
  %45 = load ptr, ptr %10, align 8, !tbaa !33
  %46 = getelementptr inbounds nuw %struct.ThreadData, ptr %9, i32 0, i32 1
  store ptr %45, ptr %46, align 8, !tbaa !46
  %47 = load ptr, ptr %5, align 8, !tbaa !33
  %48 = getelementptr inbounds nuw %struct.ThreadData, ptr %9, i32 0, i32 0
  store ptr %47, ptr %48, align 8, !tbaa !48
  %49 = load ptr, ptr %6, align 8, !tbaa !4
  %50 = load ptr, ptr %7, align 8, !tbaa !22
  %51 = getelementptr inbounds nuw %struct.LimiterContext, ptr %50, i32 0, i32 7
  %52 = getelementptr inbounds [4 x i32], ptr %51, i64 0, i64 2
  %53 = load i32, ptr %52, align 8, !tbaa !29
  %54 = load ptr, ptr %6, align 8, !tbaa !4
  %55 = call i32 @ff_filter_get_nb_threads(ptr noundef %54) #8
  %56 = icmp sgt i32 %53, %55
  br i1 %56, label %57, label %60

57:                                               ; preds = %44
  %58 = load ptr, ptr %6, align 8, !tbaa !4
  %59 = call i32 @ff_filter_get_nb_threads(ptr noundef %58) #8
  br label %65

60:                                               ; preds = %44
  %61 = load ptr, ptr %7, align 8, !tbaa !22
  %62 = getelementptr inbounds nuw %struct.LimiterContext, ptr %61, i32 0, i32 7
  %63 = getelementptr inbounds [4 x i32], ptr %62, i64 0, i64 2
  %64 = load i32, ptr %63, align 8, !tbaa !29
  br label %65

65:                                               ; preds = %60, %57
  %66 = phi i32 [ %59, %57 ], [ %64, %60 ]
  %67 = call i32 @ff_filter_execute(ptr noundef %49, ptr noundef @filter_slice, ptr noundef %9, ptr noundef null, i32 noundef %66)
  %68 = load ptr, ptr %10, align 8, !tbaa !33
  %69 = load ptr, ptr %5, align 8, !tbaa !33
  %70 = icmp ne ptr %68, %69
  br i1 %70, label %71, label %72

71:                                               ; preds = %65
  call void @av_frame_free(ptr noundef %5)
  br label %72

72:                                               ; preds = %71, %65
  %73 = load ptr, ptr %8, align 8, !tbaa !31
  %74 = load ptr, ptr %10, align 8, !tbaa !33
  %75 = call i32 @ff_filter_frame(ptr noundef %73, ptr noundef %74)
  store i32 %75, ptr %3, align 4
  store i32 1, ptr %11, align 4
  br label %76

76:                                               ; preds = %72, %39
  call void @llvm.lifetime.end.p0(i64 8, ptr %10) #7
  call void @llvm.lifetime.end.p0(i64 16, ptr %9) #7
  call void @llvm.lifetime.end.p0(i64 8, ptr %8) #7
  call void @llvm.lifetime.end.p0(i64 8, ptr %7) #7
  call void @llvm.lifetime.end.p0(i64 8, ptr %6) #7
  %77 = load i32, ptr %3, align 4
  ret i32 %77
}